target datalayout = "e-m:e-p270:32:32-p271:32:32-p272:64:64-i64:64-i128:128-f80:128-n8:16:32:64-S128"
target triple = "x86_64-pc-linux-gnu"

%struct.darktable_t = type { %struct.dt_codepath_t, i32, i32, ptr, ptr, ptr, ptr, ptr, ptr, ptr, ptr, ptr, ptr, ptr, ptr, ptr, ptr, ptr, ptr, ptr, ptr, ptr, ptr, ptr, ptr, ptr, ptr, ptr, ptr, ptr, [64 x %struct.dt_pthread_mutex_t], %struct.dt_pthread_mutex_t, %struct.dt_pthread_mutex_t, %struct.dt_pthread_mutex_t, %struct.dt_pthread_mutex_t, %struct.dt_pthread_mutex_t, ptr, ptr, ptr, ptr, ptr, ptr, ptr, ptr, ptr, ptr, ptr, ptr, ptr, %struct.dt_lua_state_t, ptr, double, ptr, i32, [47 x i32], i32, i32, ptr, ptr, %struct.dt_sys_resources_t, %struct.dt_backthumb_t, %struct.dt_gimp_t }
%struct.dt_codepath_t = type { i8, [3 x i8] }
%struct.dt_pthread_mutex_t = type { %union.pthread_mutex_t }
%union.pthread_mutex_t = type { %struct.__pthread_mutex_s }
%struct.__pthread_mutex_s = type { i32, i32, i32, i32, i32, i16, i16, %struct.__pthread_internal_list }
%struct.__pthread_internal_list = type { ptr, ptr }
%struct.dt_lua_state_t = type { i32 }
%struct.dt_sys_resources_t = type { i64, i64, ptr, ptr, i32 }
%struct.dt_backthumb_t = type { double, double, i32, i32, i32, i32 }
%struct.dt_gimp_t = type { i32, ptr, ptr, i32, i32 }

@.str = private unnamed_addr constant [12 x i8] c"unreachable\00", align 1
@.str.1 = private unnamed_addr constant [123 x i8] c"generated/home/dtcxzyw/WorkSpace/Projects/compilers/llvm-opt-benchmark/bench/darktable/darktable/src/common/box_filters.cc\00", align 1
@darktable = external global %struct.darktable_t, align 8
@__FUNCTION__.dt_box_mean_vertical = private unnamed_addr constant [21 x i8] c"dt_box_mean_vertical\00", align 1
@.str.3 = private unnamed_addr constant [104 x i8] c"[dt_unreachable_codepath] {%s} %s:%d (%s) - we should not be here. please report this to the developers\00", align 1

; Function Attrs: inlinehint mustprogress nounwind uwtable
define internal noundef i64 @_ZL18dt_get_num_threadsv() #6 {
  ret i64 1
}

; Function Attrs: inlinehint mustprogress uwtable
define internal noundef ptr @_ZL18dt_alloc_perthreadmmPm(i64 noundef %0, i64 noundef %1, ptr noundef %2) #1 {
  %4 = alloca i64, align 8
  %5 = alloca i64, align 8
  %6 = alloca ptr, align 8
  %7 = alloca i64, align 8
  %8 = alloca i64, align 8
  %9 = alloca i64, align 8
  store i64 %0, ptr %4, align 8, !tbaa !11
  store i64 %1, ptr %5, align 8, !tbaa !11
  store ptr %2, ptr %6, align 8, !tbaa !78
  call void @llvm.lifetime.start.p0(i64 8, ptr %7) #11
  %10 = load i64, ptr %4, align 8, !tbaa !11
  %11 = load i64, ptr %5, align 8, !tbaa !11
  %12 = mul i64 %10, %11
  store i64 %12, ptr %7, align 8, !tbaa !11
  call void @llvm.lifetime.start.p0(i64 8, ptr %8) #11
  %13 = load i64, ptr %7, align 8, !tbaa !11
  %14 = add i64 %13, 64
  %15 = sub i64 %14, 1
  %16 = udiv i64 %15, 64
  store i64 %16, ptr %8, align 8, !tbaa !11
  %17 = load i64, ptr %8, align 8, !tbaa !11
  %18 = mul i64 64, %17
  %19 = load i64, ptr %5, align 8, !tbaa !11
  %20 = udiv i64 %18, %19
  %21 = load ptr, ptr %6, align 8, !tbaa !78
  store i64 %20, ptr %21, align 8, !tbaa !11
  call void @llvm.lifetime.start.p0(i64 8, ptr %9) #11
  %22 = load i64, ptr %8, align 8, !tbaa !11
  %23 = mul i64 64, %22
  %24 = call noundef i64 @_ZL18dt_get_num_threadsv()
  %25 = mul i64 %23, %24
  store i64 %25, ptr %9, align 8, !tbaa !11
  %26 = load i64, ptr %9, align 8, !tbaa !11
  %27 = call ptr @dt_alloc_aligned(i64 noundef %26)
  call void @llvm.assume(i1 true) [ "align"(ptr %27, i64 64) ]
  call void @llvm.lifetime.end.p0(i64 8, ptr %9) #11
  call void @llvm.lifetime.end.p0(i64 8, ptr %8) #11
  call void @llvm.lifetime.end.p0(i64 8, ptr %7) #11
  ret ptr %27
}

; Function Attrs: inlinehint mustprogress uwtable
define internal noundef ptr @_ZL24dt_alloc_perthread_floatmPm(i64 noundef %0, ptr noundef %1) #1 {
  %3 = alloca i64, align 8
  %4 = alloca ptr, align 8
  store i64 %0, ptr %3, align 8, !tbaa !11
  store ptr %1, ptr %4, align 8, !tbaa !78
  %5 = load i64, ptr %3, align 8, !tbaa !11
  %6 = load ptr, ptr %4, align 8, !tbaa !78
  %7 = call noundef ptr @_ZL18dt_alloc_perthreadmmPm(i64 noundef %5, i64 noundef 4, ptr noundef %6)
  ret ptr %7
}

; Function Attrs: inlinehint mustprogress nounwind uwtable
define internal noundef i64 @_ZL25_compute_effective_heightmm(i64 noundef %0, i64 noundef %1) #6 {
  %3 = alloca i64, align 8
  %4 = alloca i64, align 8
  %5 = alloca i64, align 8
  %6 = alloca i64, align 8
  store i64 %0, ptr %3, align 8, !tbaa !11
  store i64 %1, ptr %4, align 8, !tbaa !11
  call void @llvm.lifetime.start.p0(i64 8, ptr %5) #11
  store i64 2, ptr %5, align 8, !tbaa !11
  call void @llvm.lifetime.start.p0(i64 8, ptr %6) #11
  %7 = load i64, ptr %4, align 8, !tbaa !11
  %8 = mul i64 2, %7
  %9 = add i64 %8, 1
  store i64 %9, ptr %6, align 8, !tbaa !11
  br label %10

10:                                               ; preds = %17, %2
  %11 = load i64, ptr %6, align 8, !tbaa !11
  %12 = icmp ugt i64 %11, 1
  br i1 %12, label %14, label %13

13:                                               ; preds = %10
  call void @llvm.lifetime.end.p0(i64 8, ptr %6) #11
  br label %20

14:                                               ; preds = %10
  %15 = load i64, ptr %5, align 8, !tbaa !11
  %16 = shl i64 %15, 1
  store i64 %16, ptr %5, align 8, !tbaa !11
  br label %17

17:                                               ; preds = %14
  %18 = load i64, ptr %6, align 8, !tbaa !11
  %19 = lshr i64 %18, 1
  store i64 %19, ptr %6, align 8, !tbaa !11
  br label %10, !llvm.loop !91

20:                                               ; preds = %13
  %21 = load i64, ptr %5, align 8, !tbaa !11
  %22 = load i64, ptr %3, align 8, !tbaa !11
  %23 = icmp ult i64 %21, %22
  br i1 %23, label %24, label %26

24:                                               ; preds = %20
  %25 = load i64, ptr %5, align 8, !tbaa !11
  br label %28

26:                                               ; preds = %20
  %27 = load i64, ptr %3, align 8, !tbaa !11
  br label %28

28:                                               ; preds = %26, %24
  %29 = phi i64 [ %25, %24 ], [ %27, %26 ]
  store i64 %29, ptr %5, align 8, !tbaa !11
  %30 = load i64, ptr %5, align 8, !tbaa !11
  call void @llvm.lifetime.end.p0(i64 8, ptr %5) #11
  ret i64 %30
}

; Function Attrs: inlinehint mustprogress uwtable
define internal void @_ZL35dt_unreachable_codepath_with_callerPKcS0_iS0_(ptr noundef %0, ptr noundef %1, i32 noundef %2, ptr noundef %3) #1 {
  %5 = alloca ptr, align 8
  %6 = alloca ptr, align 8
  %7 = alloca i32, align 4
  %8 = alloca ptr, align 8
  store ptr %0, ptr %5, align 8, !tbaa !26
  store ptr %1, ptr %6, align 8, !tbaa !26
  store i32 %2, ptr %7, align 4, !tbaa !13
  store ptr %3, ptr %8, align 8, !tbaa !26
  br label %9

9:                                                ; preds = %4
  %10 = load i32, ptr getelementptr inbounds nuw (%struct.darktable_t, ptr @darktable, i32 0, i32 2), align 8, !tbaa !28
  %11 = xor i32 %10, -1
  %12 = and i32 0, %11
  %13 = icmp ne i32 %12, 0
  br i1 %13, label %19, label %14

14:                                               ; preds = %9
  %15 = load ptr, ptr %5, align 8, !tbaa !26
  %16 = load ptr, ptr %6, align 8, !tbaa !26
  %17 = load i32, ptr %7, align 4, !tbaa !13
  %18 = load ptr, ptr %8, align 8, !tbaa !26
  call void (ptr, ...) @dt_print_ext(ptr noundef @.str.3, ptr noundef %15, ptr noundef %16, i32 noundef %17, ptr noundef %18)
  br label %19

19:                                               ; preds = %14, %9
  br label %20

20:                                               ; preds = %19
  unreachable
}

; Function Attrs: mustprogress uwtable
define internal noundef ptr @_ZL20_alloc_scratch_spacemmmmPm(i64 noundef %0, i64 noundef %1, i64 noundef %2, i64 noundef %3, ptr noundef %4) #0 {
  %6 = alloca i64, align 8
  %7 = alloca i64, align 8
  %8 = alloca i64, align 8
  %9 = alloca i64, align 8
  %10 = alloca ptr, align 8
  %11 = alloca i64, align 8
  %12 = alloca i64, align 8
  store i64 %0, ptr %6, align 8, !tbaa !11
  store i64 %1, ptr %7, align 8, !tbaa !11
  store i64 %2, ptr %8, align 8, !tbaa !11
  store i64 %3, ptr %9, align 8, !tbaa !11
  store ptr %4, ptr %10, align 8, !tbaa !78
  call void @llvm.lifetime.start.p0(i64 8, ptr %11) #11
  %13 = load i64, ptr %7, align 8, !tbaa !11
  %14 = load i64, ptr %9, align 8, !tbaa !11
  %15 = call noundef i64 @_ZL25_compute_effective_heightmm(i64 noundef %13, i64 noundef %14)
  store i64 %15, ptr %11, align 8, !tbaa !11
  call void @llvm.lifetime.start.p0(i64 8, ptr %12) #11
  %16 = load i64, ptr %6, align 8, !tbaa !11
  %17 = load i64, ptr %8, align 8, !tbaa !11
  %18 = mul i64 %16, %17
  %19 = load i64, ptr %7, align 8, !tbaa !11
  %20 = load i64, ptr %11, align 8, !tbaa !11
  %21 = mul i64 16, %20
  %22 = icmp ugt i64 %19, %21
  br i1 %22, label %23, label %25

23:                                               ; preds = %5
  %24 = load i64, ptr %7, align 8, !tbaa !11
  br label %28

25:                                               ; preds = %5
  %26 = load i64, ptr %11, align 8, !tbaa !11
  %27 = mul i64 16, %26
  br label %28

28:                                               ; preds = %25, %23
  %29 = phi i64 [ %24, %23 ], [ %27, %25 ]
  %30 = icmp ugt i64 %18, %29
  br i1 %30, label %31, label %35

31:                                               ; preds = %28
  %32 = load i64, ptr %6, align 8, !tbaa !11
  %33 = load i64, ptr %8, align 8, !tbaa !11
  %34 = mul i64 %32, %33
  br label %47

35:                                               ; preds = %28
  %36 = load i64, ptr %7, align 8, !tbaa !11
  %37 = load i64, ptr %11, align 8, !tbaa !11
  %38 = mul i64 16, %37
  %39 = icmp ugt i64 %36, %38
  br i1 %39, label %40, label %42

40:                                               ; preds = %35
  %41 = load i64, ptr %7, align 8, !tbaa !11
  br label %45

42:                                               ; preds = %35
  %43 = load i64, ptr %11, align 8, !tbaa !11
  %44 = mul i64 16, %43
  br label %45

45:                                               ; preds = %42, %40
  %46 = phi i64 [ %41, %40 ], [ %44, %42 ]
  br label %47

47:                                               ; preds = %45, %31
  %48 = phi i64 [ %34, %31 ], [ %46, %45 ]
  store i64 %48, ptr %12, align 8, !tbaa !11
  %49 = load i64, ptr %12, align 8, !tbaa !11
  %50 = load ptr, ptr %10, align 8, !tbaa !78
  %51 = call noundef ptr @_ZL24dt_alloc_perthread_floatmPm(i64 noundef %49, ptr noundef %50)
  call void @llvm.lifetime.end.p0(i64 8, ptr %12) #11
  call void @llvm.lifetime.end.p0(i64 8, ptr %11) #11
  ret ptr %51
}

; Function Attrs: mustprogress uwtable
define void @dt_box_mean_vertical(ptr noundef %0, i64 noundef %1, i64 noundef %2, i32 noundef %3, i64 noundef %4) #0 {
  %6 = alloca ptr, align 8
  %7 = alloca i64, align 8
  %8 = alloca i64, align 8
  %9 = alloca i32, align 4
  %10 = alloca i64, align 8
  %11 = alloca i64, align 8
  %12 = alloca i64, align 8
  %13 = alloca ptr, align 8
  %14 = alloca i32, align 4
  store ptr %0, ptr %6, align 8, !tbaa !6
  store i64 %1, ptr %7, align 8, !tbaa !11
  store i64 %2, ptr %8, align 8, !tbaa !11
  store i32 %3, ptr %9, align 4, !tbaa !13
  store i64 %4, ptr %10, align 8, !tbaa !11
  %15 = load i32, ptr %9, align 4, !tbaa !13
  %16 = and i32 %15, 16777216
  %17 = icmp ne i32 %16, 0
  br i1 %17, label %18, label %47

18:                                               ; preds = %5
  %19 = load i32, ptr %9, align 4, !tbaa !13
  %20 = and i32 %19, -16777217
  %21 = icmp ule i32 %20, 16
  br i1 %21, label %22, label %47

22:                                               ; preds = %18
  call void @llvm.lifetime.start.p0(i64 8, ptr %11) #11
  %23 = load i32, ptr %9, align 4, !tbaa !13
  %24 = and i32 %23, -16777217
  %25 = zext i32 %24 to i64
  store i64 %25, ptr %11, align 8, !tbaa !11
  call void @llvm.lifetime.start.p0(i64 8, ptr %12) #11
  call void @llvm.lifetime.start.p0(i64 8, ptr %13) #11
  %26 = load i64, ptr %11, align 8, !tbaa !11
  %27 = load i64, ptr %7, align 8, !tbaa !11
  %28 = load i64, ptr %8, align 8, !tbaa !11
  %29 = load i64, ptr %10, align 8, !tbaa !11
  %30 = call noundef ptr @_ZL20_alloc_scratch_spacemmmmPm(i64 noundef %26, i64 noundef %27, i64 noundef %28, i64 noundef %29, ptr noundef %12)
  store ptr %30, ptr %13, align 8, !tbaa !6
  %31 = load ptr, ptr %13, align 8, !tbaa !6
  %32 = icmp eq ptr %31, null
  br i1 %32, label %33, label %34

33:                                               ; preds = %22
  store i32 1, ptr %14, align 4
  br label %44

34:                                               ; preds = %22
  %35 = load ptr, ptr %6, align 8, !tbaa !6
  %36 = load i64, ptr %7, align 8, !tbaa !11
  %37 = load i64, ptr %11, align 8, !tbaa !11
  %38 = load i64, ptr %8, align 8, !tbaa !11
  %39 = mul i64 %37, %38
  %40 = load i64, ptr %10, align 8, !tbaa !11
  %41 = load ptr, ptr %13, align 8, !tbaa !6
  %42 = load i64, ptr %12, align 8, !tbaa !11
  call void @_ZL18_blur_vertical_1chILb1EEvPfmmmS0_m(ptr noundef %35, i64 noundef %36, i64 noundef %39, i64 noundef %40, ptr noundef %41, i64 noundef %42)
  %43 = load ptr, ptr %13, align 8, !tbaa !6
  call void @free(ptr noundef %43) #11
  store i32 0, ptr %14, align 4
  br label %44

44:                                               ; preds = %34, %33
  call void @llvm.lifetime.end.p0(i64 8, ptr %13) #11
  call void @llvm.lifetime.end.p0(i64 8, ptr %12) #11
  call void @llvm.lifetime.end.p0(i64 8, ptr %11) #11
  %45 = load i32, ptr %14, align 4
  switch i32 %45, label %49 [
    i32 0, label %46
    i32 1, label %48
  ]

46:                                               ; preds = %44
  br label %48

47:                                               ; preds = %18, %5
  call void @_ZL35dt_unreachable_codepath_with_callerPKcS0_iS0_(ptr noundef @.str, ptr noundef @.str.1, i32 noundef 690, ptr noundef @__FUNCTION__.dt_box_mean_vertical)
  br label %48

48:                                               ; preds = %44, %47, %46
  ret void

49:                                               ; preds = %44
  unreachable
}