; Function Attrs: mustprogress uwtable
define void @dt_box_mean_vertical(ptr noundef captures(none) %0, i64 noundef %1, i64 noundef %2, i32 noundef %3, i64 noundef %4) local_unnamed_addr #0 {
  %6 = and i32 %3, 16777216
  %.not = icmp eq i32 %6, 0
  br i1 %.not, label %27, label %7

7:                                                ; preds = %5
  %8 = and i32 %3, -16777217
  %9 = icmp ult i32 %8, 17
  br i1 %9, label %10, label %27

10:                                               ; preds = %7
  %11 = zext nneg i32 %8 to i64
  %12 = shl i64 %4, 1
  %.not.i.i = icmp eq i64 %12, 0
  br i1 %.not.i.i, label %_ZL20_alloc_scratch_spacemmmmPm.exit, label %.lr.ph.preheader.i.i

.lr.ph.preheader.i.i:                             ; preds = %10
  %13 = or disjoint i64 %12, 1
  br label %.lr.ph.i.i

.lr.ph.i.i:                                       ; preds = %.lr.ph.i.i, %.lr.ph.preheader.i.i
  %.011.i.i = phi i64 [ %15, %.lr.ph.i.i ], [ %13, %.lr.ph.preheader.i.i ]
  %.0910.i.i = phi i64 [ %14, %.lr.ph.i.i ], [ 2, %.lr.ph.preheader.i.i ]
  %14 = shl i64 %.0910.i.i, 1
  %15 = lshr i64 %.011.i.i, 1
  %16 = icmp ugt i64 %.011.i.i, 3
  br i1 %16, label %.lr.ph.i.i, label %_ZL20_alloc_scratch_spacemmmmPm.exit, !llvm.loop !6

_ZL20_alloc_scratch_spacemmmmPm.exit:             ; preds = %.lr.ph.i.i, %10
  %.09.lcssa.i.i = phi i64 [ 2, %10 ], [ %14, %.lr.ph.i.i ]
  %17 = tail call noundef range(i64 0, -1) i64 @llvm.umin.i64(i64 %.09.lcssa.i.i, i64 %1)
  %18 = mul i64 %2, %11
  %19 = shl i64 %17, 4
  %20 = tail call i64 @llvm.umax.i64(i64 %1, i64 %19)
  %..i = tail call i64 @llvm.umax.i64(i64 %18, i64 %20)
  %21 = shl i64 %..i, 2
  %22 = add i64 %21, 63
  %23 = and i64 %22, -64
  %24 = tail call noundef ptr @dt_alloc_aligned(i64 noundef %23)
  call void @llvm.assume(i1 true) [ "align"(ptr %24, i64 64) ]
  %25 = icmp eq ptr %24, null
  br i1 %25, label %28, label %26

26:                                               ; preds = %_ZL20_alloc_scratch_spacemmmmPm.exit
  tail call fastcc void @_ZL18_blur_vertical_1chILb1EEvPfmmmS0_m(ptr noundef %0, i64 noundef %1, i64 noundef %18, i64 noundef %4, ptr noundef %24)
  tail call void @free(ptr noundef nonnull %24) #12
  br label %28

27:                                               ; preds = %7, %5
  tail call void (ptr, ...) @dt_print_ext(ptr noundef nonnull @.str.3, ptr noundef nonnull @.str, ptr noundef nonnull @.str.1, i32 noundef 690, ptr noundef nonnull @__FUNCTION__.dt_box_mean_vertical)
  unreachable

28:                                               ; preds = %26, %_ZL20_alloc_scratch_spacemmmmPm.exit
  ret void
}